; Function Attrs: mustprogress uwtable
define void @_ZNK10open_spiel8deep_sea12DeepSeaState14ActionToStringB5cxx11Eil(ptr dead_on_unwind noalias writable sret(%"class.std::__cxx11::basic_string") align 8 %0, ptr nocapture nonnull readnone align 8 %1, i32 noundef %2, i64 noundef %3) unnamed_addr #3 align 2 personality ptr @__gxx_personality_v0 {
  %5 = alloca i32, align 4
  %6 = alloca i32, align 4
  %7 = alloca %"class.std::__cxx11::basic_string", align 8
  %8 = alloca i32, align 4
  %9 = alloca %"class.std::allocator", align 1
  store i32 %2, ptr %5, align 4
  store i32 0, ptr %6, align 4
  %10 = icmp eq i32 %2, 0
  br i1 %10, label %15, label %11

11:                                               ; preds = %4
  store i32 84, ptr %8, align 4
  call void @_ZN10open_spiel8internal11SpielStrCatIJRA136_KcRA2_S2_iS6_RA12_S2_RA8_S2_RA4_S2_RiRA7_S2_SD_EEENSt7__cxx1112basic_stringIcSt11char_traitsIcESaIcEEEDpOT_(ptr dead_on_unwind nonnull writable sret(%"class.std::__cxx11::basic_string") align 8 %7, ptr noundef nonnull align 1 dereferenceable(136) @.str.9, ptr noundef nonnull align 1 dereferenceable(2) @.str.10, ptr noundef nonnull align 4 dereferenceable(4) %8, ptr noundef nonnull align 1 dereferenceable(2) @.str.14, ptr noundef nonnull align 1 dereferenceable(12) @.str.15, ptr noundef nonnull align 1 dereferenceable(8) @.str.16, ptr noundef nonnull align 1 dereferenceable(4) @.str.17, ptr noundef nonnull align 4 dereferenceable(4) %5, ptr noundef nonnull align 1 dereferenceable(7) @.str.18, ptr noundef nonnull align 4 dereferenceable(4) %6)
  invoke void @_ZN10open_spiel15SpielFatalErrorERKNSt7__cxx1112basic_stringIcSt11char_traitsIcESaIcEEE(ptr noundef nonnull align 8 dereferenceable(32) %7) #23
          to label %12 unwind label %13

12:                                               ; preds = %11
  unreachable

13:                                               ; preds = %11
  %14 = landingpad { ptr, i32 }
          cleanup
  call void @_ZNSt7__cxx1112basic_stringIcSt11char_traitsIcESaIcEED1Ev(ptr noundef nonnull align 8 dereferenceable(32) %7) #24
  br label %24

15:                                               ; preds = %4
  %.not = icmp eq i64 %3, 0
  %16 = select i1 %.not, ptr @.str.20, ptr @.str.19
  call void @_ZNSaIcEC1Ev(ptr noundef nonnull align 1 dereferenceable(1) %9) #24
  %17 = invoke noundef ptr @_ZNSt7__cxx1112basic_stringIcSt11char_traitsIcESaIcEE13_M_local_dataEv(ptr noundef nonnull align 8 dereferenceable(32) %0)
          to label %.noexc unwind label %22

.noexc:                                           ; preds = %15
  invoke void @_ZNSt7__cxx1112basic_stringIcSt11char_traitsIcESaIcEE12_Alloc_hiderC1EPcRKS3_(ptr noundef nonnull align 8 dereferenceable(8) %0, ptr noundef %17, ptr noundef nonnull align 1 dereferenceable(1) %9)
          to label %.noexc5 unwind label %22

.noexc5:                                          ; preds = %.noexc
  %18 = select i1 %.not, i64 4, i64 5
  %19 = getelementptr inbounds i8, ptr %16, i64 %18
  invoke void @_ZNSt7__cxx1112basic_stringIcSt11char_traitsIcESaIcEE12_M_constructIPKcEEvT_S8_St20forward_iterator_tag(ptr noundef nonnull align 8 dereferenceable(32) %0, ptr noundef nonnull %16, ptr noundef nonnull %19)
          to label %_ZNSt7__cxx1112basic_stringIcSt11char_traitsIcESaIcEEC2IS3_EEPKcRKS3_.exit unwind label %20

20:                                               ; preds = %.noexc5
  %21 = landingpad { ptr, i32 }
          cleanup
  call void @_ZNSaIcED2Ev(ptr noundef nonnull align 1 dereferenceable(1) %0) #24
  br label %.body

_ZNSt7__cxx1112basic_stringIcSt11char_traitsIcESaIcEEC2IS3_EEPKcRKS3_.exit: ; preds = %.noexc5
  call void @_ZNSaIcED1Ev(ptr noundef nonnull align 1 dereferenceable(1) %9) #24
  ret void

22:                                               ; preds = %.noexc, %15
  %23 = landingpad { ptr, i32 }
          cleanup
  br label %.body

.body:                                            ; preds = %20, %22
  %eh.lpad-body = phi { ptr, i32 } [ %23, %22 ], [ %21, %20 ]
  call void @_ZNSaIcED1Ev(ptr noundef nonnull align 1 dereferenceable(1) %9) #24
  br label %24

24:                                               ; preds = %.body, %13
  %.pn = phi { ptr, i32 } [ %eh.lpad-body, %.body ], [ %14, %13 ]
  resume { ptr, i32 } %.pn
}